; Function Attrs: mustprogress uwtable
define noundef nonnull align 8 dereferenceable(64) ptr @_ZN6icu_7518TransliteratorSpec4nextEv(ptr noundef nonnull align 8 dereferenceable(280) %this) local_unnamed_addr #1 align 2 {
entry:
  %nextSpec = getelementptr inbounds i8, ptr %this, i64 136
  %spec = getelementptr inbounds i8, ptr %this, i64 72
  %call = tail call noundef nonnull align 8 dereferenceable(64) ptr @_ZN6icu_7513UnicodeStringaSERKS0_(ptr noundef nonnull align 8 dereferenceable(64) %spec, ptr noundef nonnull align 8 dereferenceable(64) %nextSpec)
  %isNextLocale = getelementptr inbounds i8, ptr %this, i64 265
  %0 = load i8, ptr %isNextLocale, align 1
  %isSpecLocale = getelementptr inbounds i8, ptr %this, i64 264
  store i8 %0, ptr %isSpecLocale, align 8
  tail call void @_ZN6icu_7518TransliteratorSpec9setupNextEv(ptr noundef nonnull align 8 dereferenceable(280) %this)
  ret ptr %spec
}